target datalayout = "e-m:e-p270:32:32-p271:32:32-p272:64:64-i64:64-i128:128-f80:128-n8:16:32:64-S128"
target triple = "x86_64-pc-linux-gnu"

%struct.QemuMutex = type { %union.pthread_mutex_t, i8 }
%union.pthread_mutex_t = type { %struct.__pthread_mutex_s }
%struct.__pthread_mutex_s = type { i32, i32, i32, i32, i32, i16, i16, %struct.__pthread_internal_list }
%struct.__pthread_internal_list = type { ptr, ptr }
%struct.Job = type { ptr, ptr, ptr, i8, i8, ptr, ptr, %struct.ProgressMeter, ptr, i32, i32, %struct.QEMUTimer, i32, i8, i8, i8, i8, i8, i8, i32, ptr, %struct.NotifierList, %struct.NotifierList, %struct.NotifierList, %struct.NotifierList, %struct.NotifierList, %struct.anon.1, ptr, %struct.anon.2 }
%struct.ProgressMeter = type { i64, i64, %struct.QemuMutex }
%struct.QEMUTimer = type { i64, ptr, ptr, ptr, ptr, i32, i32 }
%struct.NotifierList = type { %struct.anon.0 }
%struct.anon.0 = type { ptr }
%struct.anon.1 = type { ptr, ptr }
%struct.anon.2 = type { ptr, ptr }
%struct.JobDriver = type { i64, i32, ptr, ptr, ptr, ptr, ptr, ptr, ptr, ptr, ptr, ptr, ptr }

@qemu_mutex_lock_func = external global ptr, align 8
@job_mutex = dso_local global %struct.QemuMutex zeroinitializer, align 8
@.str = private unnamed_addr constant [14 x i8] c"../qemu/job.c\00", align 1
@.str.6 = private unnamed_addr constant [22 x i8] c"qemu_in_main_thread()\00", align 1
@.str.17 = private unnamed_addr constant [21 x i8] c"job->pause_count > 0\00", align 1
@__PRETTY_FUNCTION__.job_cancel_async_locked = private unnamed_addr constant [43 x i8] c"void job_cancel_async_locked(Job *, _Bool)\00", align 1

; Function Attrs: nounwind sspstrong uwtable
define dso_local void @job_lock() #0 {
  %1 = alloca ptr, align 8
  %2 = alloca ptr, align 8
  %3 = alloca ptr, align 8
  call void @llvm.lifetime.start.p0(i64 8, ptr %1) #16
  br label %4

4:                                                ; preds = %0
  br i1 false, label %5, label %6

5:                                                ; preds = %4
  call void @qemu_build_not_reached_always() #17, !srcloc !4
  unreachable

6:                                                ; preds = %4
  %7 = load atomic i64, ptr @qemu_mutex_lock_func monotonic, align 8
  store i64 %7, ptr %3, align 8
  %8 = load ptr, ptr %3, align 8
  store ptr %8, ptr %2, align 8
  %9 = load ptr, ptr %2, align 8
  store ptr %9, ptr %1, align 8
  %10 = load ptr, ptr %1, align 8
  call void %10(ptr noundef @job_mutex, ptr noundef @.str, i32 noundef 101)
  call void @llvm.lifetime.end.p0(i64 8, ptr %1) #16
  ret void
}

; Function Attrs: nounwind sspstrong uwtable
define dso_local void @job_unlock() #0 {
  call void @qemu_mutex_unlock_impl(ptr noundef @job_mutex, ptr noundef @.str, i32 noundef 106)
  ret void
}

; Function Attrs: nounwind sspstrong uwtable
define internal void @job_cancel_async_locked(ptr noundef %0, i1 noundef zeroext %1) #0 {
  %3 = alloca ptr, align 8
  %4 = alloca i8, align 1
  store ptr %0, ptr %3, align 8
  %5 = zext i1 %1 to i8
  store i8 %5, ptr %4, align 1
  br label %6

6:                                                ; preds = %2
  %7 = call zeroext i1 @qemu_in_main_thread()
  br i1 %7, label %8, label %9

8:                                                ; preds = %6
  br label %10

9:                                                ; preds = %6
  call void @__assert_fail(ptr noundef @.str.6, ptr noundef @.str, i32 noundef 884, ptr noundef @__PRETTY_FUNCTION__.job_cancel_async_locked) #20
  unreachable

10:                                               ; preds = %8
  br label %11

11:                                               ; preds = %10
  %12 = load ptr, ptr %3, align 8
  %13 = getelementptr inbounds nuw %struct.Job, ptr %12, i32 0, i32 1
  %14 = load ptr, ptr %13, align 8
  %15 = getelementptr inbounds nuw %struct.JobDriver, ptr %14, i32 0, i32 11
  %16 = load ptr, ptr %15, align 8
  %17 = icmp ne ptr %16, null
  br i1 %17, label %18, label %29

18:                                               ; preds = %11
  call void @job_unlock()
  %19 = load ptr, ptr %3, align 8
  %20 = getelementptr inbounds nuw %struct.Job, ptr %19, i32 0, i32 1
  %21 = load ptr, ptr %20, align 8
  %22 = getelementptr inbounds nuw %struct.JobDriver, ptr %21, i32 0, i32 11
  %23 = load ptr, ptr %22, align 8
  %24 = load ptr, ptr %3, align 8
  %25 = load i8, ptr %4, align 1, !range !7, !noundef !8
  %26 = trunc i8 %25 to i1
  %27 = call zeroext i1 %23(ptr noundef %24, i1 noundef zeroext %26)
  %28 = zext i1 %27 to i8
  store i8 %28, ptr %4, align 1
  call void @job_lock()
  br label %30

29:                                               ; preds = %11
  store i8 1, ptr %4, align 1
  br label %30

30:                                               ; preds = %29, %18
  %31 = load ptr, ptr %3, align 8
  %32 = getelementptr inbounds nuw %struct.Job, ptr %31, i32 0, i32 15
  %33 = load i8, ptr %32, align 2, !range !7, !noundef !8
  %34 = trunc i8 %33 to i1
  br i1 %34, label %35, label %63

35:                                               ; preds = %30
  %36 = load ptr, ptr %3, align 8
  %37 = getelementptr inbounds nuw %struct.Job, ptr %36, i32 0, i32 1
  %38 = load ptr, ptr %37, align 8
  %39 = getelementptr inbounds nuw %struct.JobDriver, ptr %38, i32 0, i32 5
  %40 = load ptr, ptr %39, align 8
  %41 = icmp ne ptr %40, null
  br i1 %41, label %42, label %49

42:                                               ; preds = %35
  call void @job_unlock()
  %43 = load ptr, ptr %3, align 8
  %44 = getelementptr inbounds nuw %struct.Job, ptr %43, i32 0, i32 1
  %45 = load ptr, ptr %44, align 8
  %46 = getelementptr inbounds nuw %struct.JobDriver, ptr %45, i32 0, i32 5
  %47 = load ptr, ptr %46, align 8
  %48 = load ptr, ptr %3, align 8
  call void %47(ptr noundef %48)
  call void @job_lock()
  br label %49

49:                                               ; preds = %42, %35
  %50 = load ptr, ptr %3, align 8
  %51 = getelementptr inbounds nuw %struct.Job, ptr %50, i32 0, i32 15
  store i8 0, ptr %51, align 2
  %52 = load ptr, ptr %3, align 8
  %53 = getelementptr inbounds nuw %struct.Job, ptr %52, i32 0, i32 12
  %54 = load i32, ptr %53, align 8
  %55 = icmp sgt i32 %54, 0
  br i1 %55, label %56, label %57

56:                                               ; preds = %49
  br label %58

57:                                               ; preds = %49
  call void @__assert_fail(ptr noundef @.str.17, ptr noundef @.str, i32 noundef 902, ptr noundef @__PRETTY_FUNCTION__.job_cancel_async_locked) #20
  unreachable

58:                                               ; preds = %56
  %59 = load ptr, ptr %3, align 8
  %60 = getelementptr inbounds nuw %struct.Job, ptr %59, i32 0, i32 12
  %61 = load i32, ptr %60, align 8
  %62 = add i32 %61, -1
  store i32 %62, ptr %60, align 8
  br label %63

63:                                               ; preds = %58, %30
  %64 = load i8, ptr %4, align 1, !range !7, !noundef !8
  %65 = trunc i8 %64 to i1
  br i1 %65, label %71, label %66

66:                                               ; preds = %63
  %67 = load ptr, ptr %3, align 8
  %68 = getelementptr inbounds nuw %struct.Job, ptr %67, i32 0, i32 18
  %69 = load i8, ptr %68, align 1, !range !7, !noundef !8
  %70 = trunc i8 %69 to i1
  br i1 %70, label %85, label %71

71:                                               ; preds = %66, %63
  %72 = load ptr, ptr %3, align 8
  %73 = getelementptr inbounds nuw %struct.Job, ptr %72, i32 0, i32 16
  store i8 1, ptr %73, align 1
  %74 = load i8, ptr %4, align 1, !range !7, !noundef !8
  %75 = trunc i8 %74 to i1
  %76 = zext i1 %75 to i32
  %77 = load ptr, ptr %3, align 8
  %78 = getelementptr inbounds nuw %struct.Job, ptr %77, i32 0, i32 17
  %79 = load i8, ptr %78, align 8, !range !7, !noundef !8
  %80 = trunc i8 %79 to i1
  %81 = zext i1 %80 to i32
  %82 = or i32 %81, %76
  %83 = icmp ne i32 %82, 0
  %84 = zext i1 %83 to i8
  store i8 %84, ptr %78, align 8
  br label %85

85:                                               ; preds = %71, %66
  ret void
}