; Function Attrs: nounwind sspstrong uwtable
define internal fastcc void @job_cancel_async_locked(ptr noundef %0, i1 noundef zeroext %1) unnamed_addr #0 {
  %3 = tail call zeroext i1 @qemu_in_main_thread() #15
  br i1 %3, label %5, label %4

4:                                                ; preds = %2
  tail call void @__assert_fail(ptr noundef nonnull @.str.6, ptr noundef nonnull @.str, i32 noundef 884, ptr noundef nonnull @__PRETTY_FUNCTION__.job_cancel_async_locked) #17
  unreachable

5:                                                ; preds = %2
  %6 = getelementptr inbounds nuw i8, ptr %0, i64 8
  %7 = load ptr, ptr %6, align 8
  %8 = getelementptr inbounds nuw i8, ptr %7, i64 88
  %9 = load ptr, ptr %8, align 8
  %.not = icmp eq ptr %9, null
  br i1 %.not, label %17, label %10

10:                                               ; preds = %5
  tail call void @qemu_mutex_unlock_impl(ptr noundef nonnull @job_mutex, ptr noundef nonnull @.str, i32 noundef 106) #15
  %11 = load ptr, ptr %6, align 8
  %12 = getelementptr inbounds nuw i8, ptr %11, i64 88
  %13 = load ptr, ptr %12, align 8
  %14 = tail call zeroext i1 %13(ptr noundef nonnull %0, i1 noundef zeroext %1) #15
  %15 = load atomic i64, ptr @qemu_mutex_lock_func monotonic, align 8
  %16 = inttoptr i64 %15 to ptr
  tail call void %16(ptr noundef nonnull @job_mutex, ptr noundef nonnull @.str, i32 noundef 101) #15
  br label %17

17:                                               ; preds = %5, %10
  %.0 = phi i1 [ %14, %10 ], [ true, %5 ]
  %18 = getelementptr inbounds nuw i8, ptr %0, i64 182
  %19 = load i8, ptr %18, align 2, !range !4, !noundef !5
  %20 = trunc nuw i8 %19 to i1
  br i1 %20, label %21, label %38

21:                                               ; preds = %17
  %22 = load ptr, ptr %6, align 8
  %23 = getelementptr inbounds nuw i8, ptr %22, i64 40
  %24 = load ptr, ptr %23, align 8
  %.not16 = icmp eq ptr %24, null
  br i1 %.not16, label %31, label %25

25:                                               ; preds = %21
  tail call void @qemu_mutex_unlock_impl(ptr noundef nonnull @job_mutex, ptr noundef nonnull @.str, i32 noundef 106) #15
  %26 = load ptr, ptr %6, align 8
  %27 = getelementptr inbounds nuw i8, ptr %26, i64 40
  %28 = load ptr, ptr %27, align 8
  tail call void %28(ptr noundef nonnull %0) #15
  %29 = load atomic i64, ptr @qemu_mutex_lock_func monotonic, align 8
  %30 = inttoptr i64 %29 to ptr
  tail call void %30(ptr noundef nonnull @job_mutex, ptr noundef nonnull @.str, i32 noundef 101) #15
  br label %31

31:                                               ; preds = %25, %21
  store i8 0, ptr %18, align 2
  %32 = getelementptr inbounds nuw i8, ptr %0, i64 176
  %33 = load i32, ptr %32, align 8
  %34 = icmp sgt i32 %33, 0
  br i1 %34, label %36, label %35

35:                                               ; preds = %31
  tail call void @__assert_fail(ptr noundef nonnull @.str.17, ptr noundef nonnull @.str, i32 noundef 902, ptr noundef nonnull @__PRETTY_FUNCTION__.job_cancel_async_locked) #17
  unreachable

36:                                               ; preds = %31
  %37 = add nsw i32 %33, -1
  store i32 %37, ptr %32, align 8
  br label %38

38:                                               ; preds = %36, %17
  br i1 %.0, label %43, label %39

39:                                               ; preds = %38
  %40 = getelementptr inbounds nuw i8, ptr %0, i64 185
  %41 = load i8, ptr %40, align 1, !range !4, !noundef !5
  %42 = trunc nuw i8 %41 to i1
  br i1 %42, label %49, label %43

43:                                               ; preds = %39, %38
  %44 = getelementptr inbounds nuw i8, ptr %0, i64 183
  store i8 1, ptr %44, align 1
  %45 = getelementptr inbounds nuw i8, ptr %0, i64 184
  %46 = load i8, ptr %45, align 8, !range !4, !noundef !5
  %47 = zext i1 %.0 to i8
  %48 = or i8 %46, %47
  store i8 %48, ptr %45, align 8
  br label %49

49:                                               ; preds = %43, %39
  ret void
}